
MBSD-assignment.elf:     file format elf32-avr

Sections:
Idx Name          Size      VMA       LMA       File off  Algn
  0 .data         00000000  00800100  00800100  000002c6  2**0
                  CONTENTS, ALLOC, LOAD, DATA
  1 .text         00000272  00000000  00000000  00000054  2**1
                  CONTENTS, ALLOC, LOAD, READONLY, CODE
  2 .comment      00000030  00000000  00000000  000002c6  2**0
                  CONTENTS, READONLY
  3 .note.gnu.avr.deviceinfo 0000003c  00000000  00000000  000002f8  2**2
                  CONTENTS, READONLY
  4 .debug_aranges 00000030  00000000  00000000  00000334  2**0
                  CONTENTS, READONLY, DEBUGGING
  5 .debug_info   000008d0  00000000  00000000  00000364  2**0
                  CONTENTS, READONLY, DEBUGGING
  6 .debug_abbrev 00000734  00000000  00000000  00000c34  2**0
                  CONTENTS, READONLY, DEBUGGING
  7 .debug_line   000003cf  00000000  00000000  00001368  2**0
                  CONTENTS, READONLY, DEBUGGING
  8 .debug_frame  00000060  00000000  00000000  00001738  2**2
                  CONTENTS, READONLY, DEBUGGING
  9 .debug_str    000003f8  00000000  00000000  00001798  2**0
                  CONTENTS, READONLY, DEBUGGING
 10 .debug_loc    0000029a  00000000  00000000  00001b90  2**0
                  CONTENTS, READONLY, DEBUGGING
 11 .debug_ranges 00000020  00000000  00000000  00001e2a  2**0
                  CONTENTS, READONLY, DEBUGGING

Disassembly of section .text:

00000000 <__vectors>:
   0:	0c 94 38 00 	jmp	0x70	; 0x70 <__ctors_end>
   4:	0c 94 42 00 	jmp	0x84	; 0x84 <__bad_interrupt>
   8:	0c 94 42 00 	jmp	0x84	; 0x84 <__bad_interrupt>
   c:	0c 94 42 00 	jmp	0x84	; 0x84 <__bad_interrupt>
  10:	0c 94 42 00 	jmp	0x84	; 0x84 <__bad_interrupt>
  14:	0c 94 42 00 	jmp	0x84	; 0x84 <__bad_interrupt>
  18:	0c 94 42 00 	jmp	0x84	; 0x84 <__bad_interrupt>
  1c:	0c 94 42 00 	jmp	0x84	; 0x84 <__bad_interrupt>
  20:	0c 94 42 00 	jmp	0x84	; 0x84 <__bad_interrupt>
  24:	0c 94 42 00 	jmp	0x84	; 0x84 <__bad_interrupt>
  28:	0c 94 42 00 	jmp	0x84	; 0x84 <__bad_interrupt>
  2c:	0c 94 42 00 	jmp	0x84	; 0x84 <__bad_interrupt>
  30:	0c 94 42 00 	jmp	0x84	; 0x84 <__bad_interrupt>
  34:	0c 94 42 00 	jmp	0x84	; 0x84 <__bad_interrupt>
  38:	0c 94 42 00 	jmp	0x84	; 0x84 <__bad_interrupt>
  3c:	0c 94 42 00 	jmp	0x84	; 0x84 <__bad_interrupt>
  40:	0c 94 42 00 	jmp	0x84	; 0x84 <__bad_interrupt>
  44:	0c 94 42 00 	jmp	0x84	; 0x84 <__bad_interrupt>
  48:	0c 94 42 00 	jmp	0x84	; 0x84 <__bad_interrupt>
  4c:	0c 94 42 00 	jmp	0x84	; 0x84 <__bad_interrupt>
  50:	0c 94 42 00 	jmp	0x84	; 0x84 <__bad_interrupt>
  54:	0c 94 42 00 	jmp	0x84	; 0x84 <__bad_interrupt>
  58:	0c 94 42 00 	jmp	0x84	; 0x84 <__bad_interrupt>
  5c:	0c 94 42 00 	jmp	0x84	; 0x84 <__bad_interrupt>
  60:	0c 94 42 00 	jmp	0x84	; 0x84 <__bad_interrupt>
  64:	0c 94 42 00 	jmp	0x84	; 0x84 <__bad_interrupt>
  68:	0c 94 42 00 	jmp	0x84	; 0x84 <__bad_interrupt>
  6c:	0c 94 42 00 	jmp	0x84	; 0x84 <__bad_interrupt>

00000070 <__ctors_end>:
  70:	11 24       	eor	r1, r1
  72:	1f be       	out	0x3f, r1	; 63
  74:	cf ef       	ldi	r28, 0xFF	; 255
  76:	d4 e0       	ldi	r29, 0x04	; 4
  78:	de bf       	out	0x3e, r29	; 62
  7a:	cd bf       	out	0x3d, r28	; 61
  7c:	0e 94 6d 00 	call	0xda	; 0xda <main>
  80:	0c 94 37 01 	jmp	0x26e	; 0x26e <_exit>

00000084 <__bad_interrupt>:
  84:	0c 94 00 00 	jmp	0	; 0x0 <__vectors>

00000088 <GetKeyPressed>:
	}
}
int GetKeyPressed(void)
{
	char x;
	PORTB=0x00;
  88:	18 ba       	out	0x18, r1	; 24
	int data;
	x=PINC;
  8a:	83 b3       	in	r24, 0x13	; 19
	if(x==0x01)
  8c:	81 30       	cpi	r24, 0x01	; 1
  8e:	21 f4       	brne	.+8      	; 0x98 <GetKeyPressed+0x10>
	{
		data=(PIND&0x0F);
  90:	80 b3       	in	r24, 0x10	; 16
  92:	8f 70       	andi	r24, 0x0F	; 15
  94:	90 e0       	ldi	r25, 0x00	; 0
		return data;
  96:	08 95       	ret
	}
	return 16;
  98:	80 e1       	ldi	r24, 0x10	; 16
  9a:	90 e0       	ldi	r25, 0x00	; 0
}
  9c:	08 95       	ret

0000009e <checkPassword>:

//function to compare password keys
int checkPassword(char a[],char b[],int size)	{
  9e:	cf 93       	push	r28
  a0:	df 93       	push	r29
  a2:	ec 01       	movw	r28, r24
  a4:	da 01       	movw	r26, r20
	int i;
	for(i=0;i<size;i++){
  a6:	20 e0       	ldi	r18, 0x00	; 0
  a8:	30 e0       	ldi	r19, 0x00	; 0
  aa:	0c c0       	rjmp	.+24     	; 0xc4 <checkPassword+0x26>
		if(a[i]!=b[i])
  ac:	fe 01       	movw	r30, r28
  ae:	e2 0f       	add	r30, r18
  b0:	f3 1f       	adc	r31, r19
  b2:	50 81       	ld	r21, Z
  b4:	fb 01       	movw	r30, r22
  b6:	e2 0f       	add	r30, r18
  b8:	f3 1f       	adc	r31, r19
  ba:	90 81       	ld	r25, Z
  bc:	59 13       	cpse	r21, r25
  be:	08 c0       	rjmp	.+16     	; 0xd0 <checkPassword+0x32>
}

//function to compare password keys
int checkPassword(char a[],char b[],int size)	{
	int i;
	for(i=0;i<size;i++){
  c0:	2f 5f       	subi	r18, 0xFF	; 255
  c2:	3f 4f       	sbci	r19, 0xFF	; 255
  c4:	2a 17       	cp	r18, r26
  c6:	3b 07       	cpc	r19, r27
  c8:	8c f3       	brlt	.-30     	; 0xac <checkPassword+0xe>
		if(a[i]!=b[i])
		return 1;
	}
	return 0;
  ca:	80 e0       	ldi	r24, 0x00	; 0
  cc:	90 e0       	ldi	r25, 0x00	; 0
  ce:	02 c0       	rjmp	.+4      	; 0xd4 <checkPassword+0x36>
//function to compare password keys
int checkPassword(char a[],char b[],int size)	{
	int i;
	for(i=0;i<size;i++){
		if(a[i]!=b[i])
		return 1;
  d0:	81 e0       	ldi	r24, 0x01	; 1
  d2:	90 e0       	ldi	r25, 0x00	; 0
	}
	return 0;
}
  d4:	df 91       	pop	r29
  d6:	cf 91       	pop	r28
  d8:	08 95       	ret

000000da <main>:
#include <stdio.h>
#include <util/delay.h>
int GetKeyPressed(void);
int checkPassword(char a[],char b[],int size);
int main(void)
{
  da:	cf 93       	push	r28
  dc:	df 93       	push	r29
  de:	cd b7       	in	r28, 0x3d	; 61
  e0:	de b7       	in	r29, 0x3e	; 62
  e2:	6c 97       	sbiw	r28, 0x1c	; 28
  e4:	0f b6       	in	r0, 0x3f	; 63
  e6:	f8 94       	cli
  e8:	de bf       	out	0x3e, r29	; 62
  ea:	0f be       	out	0x3f, r0	; 63
  ec:	cd bf       	out	0x3d, r28	; 61
	char digit[20]={'7','8','9','A','4','5','6','B','1','2','3','C','*','0','#','D','\0'};
  ee:	fe 01       	movw	r30, r28
  f0:	31 96       	adiw	r30, 0x01	; 1
  f2:	84 e1       	ldi	r24, 0x14	; 20
  f4:	df 01       	movw	r26, r30
  f6:	1d 92       	st	X+, r1
  f8:	8a 95       	dec	r24
  fa:	e9 f7       	brne	.-6      	; 0xf6 <main+0x1c>
  fc:	87 e3       	ldi	r24, 0x37	; 55
  fe:	89 83       	std	Y+1, r24	; 0x01
 100:	88 e3       	ldi	r24, 0x38	; 56
 102:	8a 83       	std	Y+2, r24	; 0x02
 104:	89 e3       	ldi	r24, 0x39	; 57
 106:	8b 83       	std	Y+3, r24	; 0x03
 108:	81 e4       	ldi	r24, 0x41	; 65
 10a:	8c 83       	std	Y+4, r24	; 0x04
 10c:	84 e3       	ldi	r24, 0x34	; 52
 10e:	8d 83       	std	Y+5, r24	; 0x05
 110:	95 e3       	ldi	r25, 0x35	; 53
 112:	9e 83       	std	Y+6, r25	; 0x06
 114:	96 e3       	ldi	r25, 0x36	; 54
 116:	9f 83       	std	Y+7, r25	; 0x07
 118:	92 e4       	ldi	r25, 0x42	; 66
 11a:	98 87       	std	Y+8, r25	; 0x08
 11c:	31 e3       	ldi	r19, 0x31	; 49
 11e:	39 87       	std	Y+9, r19	; 0x09
 120:	22 e3       	ldi	r18, 0x32	; 50
 122:	2a 87       	std	Y+10, r18	; 0x0a
 124:	93 e3       	ldi	r25, 0x33	; 51
 126:	9b 87       	std	Y+11, r25	; 0x0b
 128:	43 e4       	ldi	r20, 0x43	; 67
 12a:	4c 87       	std	Y+12, r20	; 0x0c
 12c:	4a e2       	ldi	r20, 0x2A	; 42
 12e:	4d 87       	std	Y+13, r20	; 0x0d
 130:	40 e3       	ldi	r20, 0x30	; 48
 132:	4e 87       	std	Y+14, r20	; 0x0e
 134:	43 e2       	ldi	r20, 0x23	; 35
 136:	4f 87       	std	Y+15, r20	; 0x0f
 138:	44 e4       	ldi	r20, 0x44	; 68
 13a:	48 8b       	std	Y+16, r20	; 0x10
	DDRD=0x00;
 13c:	11 ba       	out	0x11, r1	; 17
	DDRA=0xFF;
 13e:	4f ef       	ldi	r20, 0xFF	; 255
 140:	4a bb       	out	0x1a, r20	; 26
	DDRC=0xF0;
 142:	40 ef       	ldi	r20, 0xF0	; 240
 144:	44 bb       	out	0x14, r20	; 20
	DDRB=(1<<PINB1);
 146:	42 e0       	ldi	r20, 0x02	; 2
 148:	47 bb       	out	0x17, r20	; 23
	int key;
	char password[4]={'1','2','3','4'}; // saved password
 14a:	3d 8b       	std	Y+21, r19	; 0x15
 14c:	2e 8b       	std	Y+22, r18	; 0x16
 14e:	9f 8b       	std	Y+23, r25	; 0x17
 150:	88 8f       	std	Y+24, r24	; 0x18
	char check[4]; // check password
	int invalid=0; // invalid count
	int index=0; // password index
	char open=0b11000000; // 7-segment display 'O'
	char close=0b11000110;// 7-segment display 'C'
	PORTA=close;
 152:	86 ec       	ldi	r24, 0xC6	; 198
 154:	8b bb       	out	0x1b, r24	; 27
	DDRB=(1<<PINB1);
	int key;
	char password[4]={'1','2','3','4'}; // saved password
	char check[4]; // check password
	int invalid=0; // invalid count
	int index=0; // password index
 156:	00 e0       	ldi	r16, 0x00	; 0
 158:	10 e0       	ldi	r17, 0x00	; 0
	DDRC=0xF0;
	DDRB=(1<<PINB1);
	int key;
	char password[4]={'1','2','3','4'}; // saved password
	char check[4]; // check password
	int invalid=0; // invalid count
 15a:	e1 2c       	mov	r14, r1
 15c:	f1 2c       	mov	r15, r1
	char invalid_open=0b10000001; // led blink on
	char invalid_close=0b00000000; // led blink off
	
	while(1)
	{
		key= GetKeyPressed();
 15e:	0e 94 44 00 	call	0x88	; 0x88 <GetKeyPressed>
		// any key is pressed
		if(key !=16)
 162:	80 31       	cpi	r24, 0x10	; 16
 164:	91 05       	cpc	r25, r1
 166:	09 f4       	brne	.+2      	; 0x16a <main+0x90>
 168:	56 c0       	rjmp	.+172    	; 0x216 <__EEPROM_REGION_LENGTH__+0x16>
		{ //password key is correct and it matches
			if (digit[key]==password[index] && index!=4){
 16a:	e1 e0       	ldi	r30, 0x01	; 1
 16c:	f0 e0       	ldi	r31, 0x00	; 0
 16e:	ec 0f       	add	r30, r28
 170:	fd 1f       	adc	r31, r29
 172:	e8 0f       	add	r30, r24
 174:	f9 1f       	adc	r31, r25
 176:	80 81       	ld	r24, Z
 178:	e5 e1       	ldi	r30, 0x15	; 21
 17a:	f0 e0       	ldi	r31, 0x00	; 0
 17c:	ec 0f       	add	r30, r28
 17e:	fd 1f       	adc	r31, r29
 180:	e0 0f       	add	r30, r16
 182:	f1 1f       	adc	r31, r17
 184:	90 81       	ld	r25, Z
 186:	89 13       	cpse	r24, r25
 188:	0d c0       	rjmp	.+26     	; 0x1a4 <main+0xca>
 18a:	04 30       	cpi	r16, 0x04	; 4
 18c:	11 05       	cpc	r17, r1
 18e:	51 f0       	breq	.+20     	; 0x1a4 <main+0xca>
				check[index]=password[index];
 190:	e9 e1       	ldi	r30, 0x19	; 25
 192:	f0 e0       	ldi	r31, 0x00	; 0
 194:	ec 0f       	add	r30, r28
 196:	fd 1f       	adc	r31, r29
 198:	e0 0f       	add	r30, r16
 19a:	f1 1f       	adc	r31, r17
 19c:	90 83       	st	Z, r25
				index++;
 19e:	0f 5f       	subi	r16, 0xFF	; 255
 1a0:	1f 4f       	sbci	r17, 0xFF	; 255
 1a2:	39 c0       	rjmp	.+114    	; 0x216 <__EEPROM_REGION_LENGTH__+0x16>
			}
			//reset password
			else if(digit[key]=='*'){
 1a4:	8a 32       	cpi	r24, 0x2A	; 42
 1a6:	a9 f1       	breq	.+106    	; 0x212 <__EEPROM_REGION_LENGTH__+0x12>
				index=0;
			}
			//incorrect input is entered
			else if (digit[key]!=password[index-1] && index!=4){
 1a8:	f8 01       	movw	r30, r16
 1aa:	31 97       	sbiw	r30, 0x01	; 1
 1ac:	25 e1       	ldi	r18, 0x15	; 21
 1ae:	30 e0       	ldi	r19, 0x00	; 0
 1b0:	2c 0f       	add	r18, r28
 1b2:	3d 1f       	adc	r19, r29
 1b4:	e2 0f       	add	r30, r18
 1b6:	f3 1f       	adc	r31, r19
 1b8:	90 81       	ld	r25, Z
 1ba:	89 17       	cp	r24, r25
 1bc:	61 f1       	breq	.+88     	; 0x216 <__EEPROM_REGION_LENGTH__+0x16>
 1be:	04 30       	cpi	r16, 0x04	; 4
 1c0:	11 05       	cpc	r17, r1
 1c2:	49 f1       	breq	.+82     	; 0x216 <__EEPROM_REGION_LENGTH__+0x16>
				index=0;
				memset(check,0,4);
 1c4:	fe 01       	movw	r30, r28
 1c6:	79 96       	adiw	r30, 0x19	; 25
 1c8:	84 e0       	ldi	r24, 0x04	; 4
 1ca:	df 01       	movw	r26, r30
 1cc:	1d 92       	st	X+, r1
 1ce:	8a 95       	dec	r24
 1d0:	e9 f7       	brne	.-6      	; 0x1cc <main+0xf2>
	#else
		//round up by default
		__ticks_dc = (uint32_t)(ceil(fabs(__tmp)));
	#endif

	__builtin_avr_delay_cycles(__ticks_dc);
 1d2:	bf e9       	ldi	r27, 0x9F	; 159
 1d4:	26 e8       	ldi	r18, 0x86	; 134
 1d6:	31 e0       	ldi	r19, 0x01	; 1
 1d8:	b1 50       	subi	r27, 0x01	; 1
 1da:	20 40       	sbci	r18, 0x00	; 0
 1dc:	30 40       	sbci	r19, 0x00	; 0
 1de:	e1 f7       	brne	.-8      	; 0x1d8 <main+0xfe>
 1e0:	00 c0       	rjmp	.+0      	; 0x1e2 <main+0x108>
 1e2:	00 00       	nop
				_delay_ms(500);
				if (invalid%4==0)
 1e4:	c7 01       	movw	r24, r14
 1e6:	83 70       	andi	r24, 0x03	; 3
 1e8:	99 27       	eor	r25, r25
 1ea:	89 2b       	or	r24, r25
 1ec:	61 f4       	brne	.+24     	; 0x206 <__EEPROM_REGION_LENGTH__+0x6>
				{
					PORTC=invalid_open;
 1ee:	81 e8       	ldi	r24, 0x81	; 129
 1f0:	85 bb       	out	0x15, r24	; 21
 1f2:	8f e3       	ldi	r24, 0x3F	; 63
 1f4:	9d e0       	ldi	r25, 0x0D	; 13
 1f6:	a3 e0       	ldi	r26, 0x03	; 3
 1f8:	81 50       	subi	r24, 0x01	; 1
 1fa:	90 40       	sbci	r25, 0x00	; 0
 1fc:	a0 40       	sbci	r26, 0x00	; 0
 1fe:	e1 f7       	brne	.-8      	; 0x1f8 <main+0x11e>
 200:	00 c0       	rjmp	.+0      	; 0x202 <__EEPROM_REGION_LENGTH__+0x2>
 202:	00 00       	nop
					_delay_ms(1000);
					PORTC=invalid_close;
 204:	15 ba       	out	0x15, r1	; 21
				}
				invalid++;
 206:	bf ef       	ldi	r27, 0xFF	; 255
 208:	eb 1a       	sub	r14, r27
 20a:	fb 0a       	sbc	r15, r27
			else if(digit[key]=='*'){
				index=0;
			}
			//incorrect input is entered
			else if (digit[key]!=password[index-1] && index!=4){
				index=0;
 20c:	00 e0       	ldi	r16, 0x00	; 0
 20e:	10 e0       	ldi	r17, 0x00	; 0
 210:	02 c0       	rjmp	.+4      	; 0x216 <__EEPROM_REGION_LENGTH__+0x16>
				check[index]=password[index];
				index++;
			}
			//reset password
			else if(digit[key]=='*'){
				index=0;
 212:	00 e0       	ldi	r16, 0x00	; 0
 214:	10 e0       	ldi	r17, 0x00	; 0
					PORTC=invalid_close;
				}
				invalid++;
			}
		}
		if (index==4 && checkPassword(password,check,4)==0){
 216:	04 30       	cpi	r16, 0x04	; 4
 218:	11 05       	cpc	r17, r1
 21a:	79 f4       	brne	.+30     	; 0x23a <__EEPROM_REGION_LENGTH__+0x3a>
 21c:	44 e0       	ldi	r20, 0x04	; 4
 21e:	50 e0       	ldi	r21, 0x00	; 0
 220:	be 01       	movw	r22, r28
 222:	67 5e       	subi	r22, 0xE7	; 231
 224:	7f 4f       	sbci	r23, 0xFF	; 255
 226:	ce 01       	movw	r24, r28
 228:	45 96       	adiw	r24, 0x15	; 21
 22a:	0e 94 4f 00 	call	0x9e	; 0x9e <checkPassword>
 22e:	89 2b       	or	r24, r25
 230:	21 f4       	brne	.+8      	; 0x23a <__EEPROM_REGION_LENGTH__+0x3a>
			PORTA=open;
 232:	80 ec       	ldi	r24, 0xC0	; 192
 234:	8b bb       	out	0x1b, r24	; 27
			invalid=0;
 236:	e1 2c       	mov	r14, r1
 238:	f1 2c       	mov	r15, r1
		}
		if((PIND & 0x10)==0x10){
 23a:	84 9b       	sbis	0x10, 4	; 16
 23c:	02 c0       	rjmp	.+4      	; 0x242 <__EEPROM_REGION_LENGTH__+0x42>
			index=0;
 23e:	00 e0       	ldi	r16, 0x00	; 0
 240:	10 e0       	ldi	r17, 0x00	; 0
		}
		if (invalid==12){
 242:	2c e0       	ldi	r18, 0x0C	; 12
 244:	e2 16       	cp	r14, r18
 246:	f1 04       	cpc	r15, r1
 248:	79 f4       	brne	.+30     	; 0x268 <__EEPROM_REGION_LENGTH__+0x68>
			PORTC=invalid_open;
 24a:	81 e8       	ldi	r24, 0x81	; 129
 24c:	85 bb       	out	0x15, r24	; 21
 24e:	3f e3       	ldi	r19, 0x3F	; 63
 250:	82 e4       	ldi	r24, 0x42	; 66
 252:	9f e0       	ldi	r25, 0x0F	; 15
 254:	31 50       	subi	r19, 0x01	; 1
 256:	80 40       	sbci	r24, 0x00	; 0
 258:	90 40       	sbci	r25, 0x00	; 0
 25a:	e1 f7       	brne	.-8      	; 0x254 <__EEPROM_REGION_LENGTH__+0x54>
 25c:	00 c0       	rjmp	.+0      	; 0x25e <__EEPROM_REGION_LENGTH__+0x5e>
 25e:	00 00       	nop
			_delay_ms(5000);
			PORTC=invalid_close;
 260:	15 ba       	out	0x15, r1	; 21
			invalid=0;
 262:	e1 2c       	mov	r14, r1
 264:	f1 2c       	mov	r15, r1
 266:	7b cf       	rjmp	.-266    	; 0x15e <main+0x84>
		}
		else{
			PORTA=close;
 268:	86 ec       	ldi	r24, 0xC6	; 198
 26a:	8b bb       	out	0x1b, r24	; 27
 26c:	78 cf       	rjmp	.-272    	; 0x15e <main+0x84>

0000026e <_exit>:
 26e:	f8 94       	cli

00000270 <__stop_program>:
 270:	ff cf       	rjmp	.-2      	; 0x270 <__stop_program>
